target datalayout = "e-m:e-p270:32:32-p271:32:32-p272:64:64-i64:64-i128:128-f80:128-n8:16:32:64-S128"
target triple = "x86_64-pc-linux-gnu"

%struct.lemon = type { ptr, ptr, ptr, i32, i32, i32, i32, i32, i32, i32, i32, i32, i32, i32, i32, ptr, i32, ptr, ptr, ptr, ptr, ptr, ptr, ptr, ptr, ptr, ptr, ptr, ptr, ptr, ptr, ptr, ptr, ptr, ptr, ptr, ptr, i32, i32, i32, i32, i32, i32, i32, i32, ptr }

@stderr = external global ptr, align 8
@.str.83 = private unnamed_addr constant [23 x i8] c"Can't open file \22%s\22.\0A\00", align 1

; Function Attrs: null_pointer_is_valid sspstrong uwtable
define hidden ptr @file_open(ptr noundef %0, ptr noundef %1, ptr noundef %2) #0 {
  %4 = alloca ptr, align 8
  %5 = alloca ptr, align 8
  %6 = alloca ptr, align 8
  %7 = alloca ptr, align 8
  %8 = alloca ptr, align 8
  %9 = alloca i32, align 4
  store ptr %0, ptr %5, align 8
  store ptr %1, ptr %6, align 8
  store ptr %2, ptr %7, align 8
  call void @llvm.lifetime.start.p0(i64 8, ptr %8) #18
  %10 = load ptr, ptr %5, align 8
  %11 = getelementptr inbounds nuw %struct.lemon, ptr %10, i32 0, i32 35
  %12 = load ptr, ptr %11, align 8
  %13 = icmp ne ptr %12, null
  br i1 %13, label %14, label %18

14:                                               ; preds = %3
  %15 = load ptr, ptr %5, align 8
  %16 = getelementptr inbounds nuw %struct.lemon, ptr %15, i32 0, i32 35
  %17 = load ptr, ptr %16, align 8
  call void @free(ptr noundef %17) #18
  br label %18

18:                                               ; preds = %14, %3
  %19 = load ptr, ptr %5, align 8
  %20 = load ptr, ptr %6, align 8
  %21 = call ptr @file_makename(ptr noundef %19, ptr noundef %20)
  %22 = load ptr, ptr %5, align 8
  %23 = getelementptr inbounds nuw %struct.lemon, ptr %22, i32 0, i32 35
  store ptr %21, ptr %23, align 8
  %24 = load ptr, ptr %5, align 8
  %25 = getelementptr inbounds nuw %struct.lemon, ptr %24, i32 0, i32 35
  %26 = load ptr, ptr %25, align 8
  %27 = load ptr, ptr %7, align 8
  %28 = call noalias ptr @fopen(ptr noundef %26, ptr noundef %27)
  store ptr %28, ptr %8, align 8
  %29 = load ptr, ptr %8, align 8
  %30 = icmp eq ptr %29, null
  br i1 %30, label %31, label %46

31:                                               ; preds = %18
  %32 = load ptr, ptr %7, align 8
  %33 = load i8, ptr %32, align 1
  %34 = sext i8 %33 to i32
  %35 = icmp eq i32 %34, 119
  br i1 %35, label %36, label %46

36:                                               ; preds = %31
  %37 = load ptr, ptr @stderr, align 8
  %38 = load ptr, ptr %5, align 8
  %39 = getelementptr inbounds nuw %struct.lemon, ptr %38, i32 0, i32 35
  %40 = load ptr, ptr %39, align 8
  %41 = call i32 (ptr, i32, ptr, ...) @__fprintf_chk(ptr noundef %37, i32 noundef 2, ptr noundef @.str.83, ptr noundef %40)
  %42 = load ptr, ptr %5, align 8
  %43 = getelementptr inbounds nuw %struct.lemon, ptr %42, i32 0, i32 16
  %44 = load i32, ptr %43, align 8
  %45 = add i32 %44, 1
  store i32 %45, ptr %43, align 8
  store ptr null, ptr %4, align 8
  store i32 1, ptr %9, align 4
  br label %48

46:                                               ; preds = %31, %18
  %47 = load ptr, ptr %8, align 8
  store ptr %47, ptr %4, align 8
  store i32 1, ptr %9, align 4
  br label %48

48:                                               ; preds = %46, %36
  call void @llvm.lifetime.end.p0(i64 8, ptr %8) #18
  %49 = load ptr, ptr %4, align 8
  ret ptr %49
}