; Function Attrs: null_pointer_is_valid sspstrong uwtable
define hidden noalias noundef ptr @file_open(ptr noundef captures(none) %0, ptr noundef readonly captures(none) %1, ptr noundef readonly captures(none) %2) local_unnamed_addr #0 {
  %4 = getelementptr inbounds nuw i8, ptr %0, i64 232
  %5 = load ptr, ptr %4, align 8
  %.not = icmp eq ptr %5, null
  br i1 %.not, label %7, label %6

6:                                                ; preds = %3
  tail call void @free(ptr noundef nonnull %5) #42
  br label %7

7:                                                ; preds = %6, %3
  %8 = tail call ptr @file_makename(ptr noundef %0, ptr noundef %1)
  store ptr %8, ptr %4, align 8
  %9 = tail call noalias ptr @fopen(ptr noundef nonnull %8, ptr noundef %2)
  %10 = icmp eq ptr %9, null
  br i1 %10, label %11, label %21

11:                                               ; preds = %7
  %12 = load i8, ptr %2, align 1
  %13 = icmp eq i8 %12, 119
  br i1 %13, label %14, label %21

14:                                               ; preds = %11
  %15 = load ptr, ptr @stderr, align 8
  %16 = load ptr, ptr %4, align 8
  %17 = tail call i32 (ptr, i32, ptr, ...) @__fprintf_chk(ptr noundef %15, i32 noundef 2, ptr noundef nonnull @.str.83, ptr noundef %16)
  %18 = getelementptr inbounds nuw i8, ptr %0, i64 80
  %19 = load i32, ptr %18, align 8
  %20 = add i32 %19, 1
  store i32 %20, ptr %18, align 8
  br label %21

21:                                               ; preds = %7, %11, %14
  ret ptr %9
}